target datalayout = "e-m:e-p270:32:32-p271:32:32-p272:64:64-i64:64-i128:128-f80:128-n8:16:32:64-S128"
target triple = "x86_64-pc-linux-gnu"

; Function Attrs: nounwind uwtable
define internal i32 @freshen_file(ptr noundef %0) #0 {
  %2 = alloca ptr, align 8
  store ptr %0, ptr %2, align 8, !tbaa !12
  %3 = load ptr, ptr %2, align 8, !tbaa !12
  %4 = call i32 @utime(ptr noundef %3, ptr noundef null) #14
  %5 = icmp ne i32 %4, 0
  %6 = xor i1 %5, true
  %7 = zext i1 %6 to i32
  ret i32 %7
}

; Function Attrs: nounwind uwtable
define dso_local i32 @check_and_freshen_file(ptr noundef %0, i32 noundef %1) #0 {
  %3 = alloca i32, align 4
  %4 = alloca ptr, align 8
  %5 = alloca i32, align 4
  store ptr %0, ptr %4, align 8, !tbaa !12
  store i32 %1, ptr %5, align 4, !tbaa !43
  %6 = load ptr, ptr %4, align 8, !tbaa !12
  %7 = call i32 @access(ptr noundef %6, i32 noundef 0) #14
  %8 = icmp ne i32 %7, 0
  br i1 %8, label %9, label %10

9:                                                ; preds = %2
  store i32 0, ptr %3, align 4
  br label %19

10:                                               ; preds = %2
  %11 = load i32, ptr %5, align 4, !tbaa !43
  %12 = icmp ne i32 %11, 0
  br i1 %12, label %13, label %18

13:                                               ; preds = %10
  %14 = load ptr, ptr %4, align 8, !tbaa !12
  %15 = call i32 @freshen_file(ptr noundef %14)
  %16 = icmp ne i32 %15, 0
  br i1 %16, label %18, label %17

17:                                               ; preds = %13
  store i32 0, ptr %3, align 4
  br label %19

18:                                               ; preds = %13, %10
  store i32 1, ptr %3, align 4
  br label %19

19:                                               ; preds = %18, %17, %9
  %20 = load i32, ptr %3, align 4
  ret i32 %20
}