; Function Attrs: nofree nounwind uwtable
define dso_local range(i32 0, 2) i32 @check_and_freshen_file(ptr noundef readonly captures(none) %0, i32 noundef %1) local_unnamed_addr #18 {
  %3 = tail call i32 @access(ptr noundef %0, i32 noundef 0) #27
  %.not = icmp eq i32 %3, 0
  br i1 %.not, label %4, label %8

4:                                                ; preds = %2
  %.not3 = icmp eq i32 %1, 0
  br i1 %.not3, label %7, label %5

5:                                                ; preds = %4
  %6 = tail call i32 @utime(ptr noundef readonly %0, ptr noundef null) #27
  %.not.i.not = icmp eq i32 %6, 0
  br i1 %.not.i.not, label %7, label %8

7:                                                ; preds = %5, %4
  br label %8

8:                                                ; preds = %5, %2, %7
  %.0 = phi i32 [ 1, %7 ], [ 0, %2 ], [ 0, %5 ]
  ret i32 %.0
}